; Function Attrs: mustprogress nofree norecurse nosync nounwind willreturn memory(read, inaccessiblemem: none) uwtable
define dso_local i32 @clientSubscriptionsCount(ptr noundef readonly captures(none) %0) #1 {
  %2 = getelementptr inbounds nuw i8, ptr %0, i64 568
  %3 = load ptr, ptr %2, align 8, !tbaa !5
  %4 = getelementptr inbounds nuw i8, ptr %3, i64 24
  %5 = load i64, ptr %4, align 8, !tbaa !28
  %6 = getelementptr inbounds nuw i8, ptr %3, i64 32
  %7 = load i64, ptr %6, align 8, !tbaa !28
  %8 = getelementptr inbounds nuw i8, ptr %0, i64 576
  %9 = load ptr, ptr %8, align 8, !tbaa !29
  %10 = getelementptr inbounds nuw i8, ptr %9, i64 24
  %11 = load i64, ptr %10, align 8, !tbaa !28
  %12 = getelementptr inbounds nuw i8, ptr %9, i64 32
  %13 = load i64, ptr %12, align 8, !tbaa !28
  %14 = add i64 %7, %5
  %15 = add i64 %14, %11
  %16 = add i64 %15, %13
  %17 = trunc i64 %16 to i32
  ret i32 %17
}